; Function Attrs: nounwind sspstrong uwtable
define dso_local i32 @rb_io_buffer_get_bytes(i64 noundef %0, ptr noundef writeonly captures(none) initializes((0, 8)) %1, ptr noundef writeonly captures(none) initializes((0, 8)) %2) local_unnamed_addr #0 {
  %4 = tail call ptr @rb_check_typeddata(i64 noundef %0, ptr noundef nonnull @rb_io_buffer_type) #25
  %5 = getelementptr inbounds nuw i8, ptr %4, i64 24
  %6 = load i64, ptr %5, align 8, !tbaa !7
  %.not.i = icmp eq i64 %6, 4
  br i1 %.not.i, label %io_buffer_validate.exit.thread, label %io_buffer_validate.exit

io_buffer_validate.exit:                          ; preds = %3
  %7 = load ptr, ptr %4, align 8, !tbaa !14
  %8 = getelementptr inbounds nuw i8, ptr %4, i64 8
  %9 = load i64, ptr %8, align 8, !tbaa !16
  %10 = tail call fastcc i32 @io_buffer_validate_slice(i64 noundef %6, ptr noundef %7, i64 noundef %9)
  %.not = icmp eq i32 %10, 0
  br i1 %.not, label %17, label %io_buffer_validate.exit.thread

io_buffer_validate.exit.thread:                   ; preds = %3, %io_buffer_validate.exit
  %11 = load ptr, ptr %4, align 8, !tbaa !14
  %.not11 = icmp eq ptr %11, null
  br i1 %.not11, label %17, label %12

12:                                               ; preds = %io_buffer_validate.exit.thread
  store ptr %11, ptr %1, align 8, !tbaa !35
  %13 = getelementptr inbounds nuw i8, ptr %4, i64 8
  %14 = load i64, ptr %13, align 8, !tbaa !16
  store i64 %14, ptr %2, align 8, !tbaa !22
  %15 = getelementptr inbounds nuw i8, ptr %4, i64 16
  %16 = load i32, ptr %15, align 8, !tbaa !15
  br label %18

17:                                               ; preds = %io_buffer_validate.exit.thread, %io_buffer_validate.exit
  store ptr null, ptr %1, align 8, !tbaa !35
  store i64 0, ptr %2, align 8, !tbaa !22
  br label %18

18:                                               ; preds = %17, %12
  %.0 = phi i32 [ %16, %12 ], [ 0, %17 ]
  ret i32 %.0
}